; Function Attrs: mustprogress nofree nounwind willreturn memory(write, argmem: none, inaccessiblemem: readwrite) uwtable
define noalias noundef ptr @Mtr_InitTree() local_unnamed_addr #4 {
  %1 = tail call noalias noundef dereferenceable_or_null(48) ptr @malloc(i64 noundef 48) #12
  %2 = icmp eq ptr %1, null
  br i1 %2, label %5, label %3

3:                                                ; preds = %0
  %4 = getelementptr inbounds nuw i8, ptr %1, i64 16
  store i32 0, ptr %1, align 8, !tbaa !3
  tail call void @llvm.memset.p0.i64(ptr noundef nonnull align 8 dereferenceable(32) %4, i8 0, i64 32, i1 false)
  br label %5

5:                                                ; preds = %0, %3
  ret ptr %1
}